; ModuleID = '5/164.c'
source_filename = "5/164.c"
target datalayout = "e-m:e-p270:32:32-p271:32:32-p272:64:64-i64:64-f80:128-n8:16:32:64-S128"
target triple = "x86_64-pc-linux-gnu"

@.str = private unnamed_addr constant [4 x i8] c"%lf\00", align 1
@.str.1 = private unnamed_addr constant [3 x i8] c"%s\00", align 1
@.str.2 = private unnamed_addr constant [4 x i8] c"yes\00", align 1
@.str.3 = private unnamed_addr constant [3 x i8] c"no\00", align 1
@.str.4 = private unnamed_addr constant [6 x i8] c"error\00", align 1

; Function Attrs: noinline nounwind uwtable
define dso_local i32 @main() #0 {
  %1 = alloca i32, align 4
  %2 = alloca double, align 8
  %3 = alloca double, align 8
  %4 = alloca i32, align 4
  %5 = alloca i32, align 4
  %6 = alloca i32, align 4
  %7 = alloca i32, align 4
  %8 = alloca i32, align 4
  %9 = alloca [505 x i8], align 16
  %10 = alloca [505 x i8], align 16
  store i32 0, i32* %1, align 4
  store i32 0, i32* %7, align 4
  store i32 0, i32* %8, align 4
  %11 = call i32 (i8*, ...) @__isoc99_scanf(i8* getelementptr inbounds ([4 x i8], [4 x i8]* @.str, i64 0, i64 0), double* %2)
  %12 = getelementptr inbounds [505 x i8], [505 x i8]* %9, i64 0, i64 0
  %13 = call i32 (i8*, ...) @__isoc99_scanf(i8* getelementptr inbounds ([3 x i8], [3 x i8]* @.str.1, i64 0, i64 0), i8* %12)
  %14 = getelementptr inbounds [505 x i8], [505 x i8]* %10, i64 0, i64 0
  %15 = call i32 (i8*, ...) @__isoc99_scanf(i8* getelementptr inbounds ([3 x i8], [3 x i8]* @.str.1, i64 0, i64 0), i8* %14)
  %16 = getelementptr inbounds [505 x i8], [505 x i8]* %9, i64 0, i64 0
  %17 = call i64 @strlen(i8* %16) #3
  %18 = trunc i64 %17 to i32
  store i32 %18, i32* %5, align 4
  %19 = getelementptr inbounds [505 x i8], [505 x i8]* %10, i64 0, i64 0
  %20 = call i64 @strlen(i8* %19) #3
  %21 = trunc i64 %20 to i32
  store i32 %21, i32* %4, align 4
  %22 = load i32, i32* %4, align 4
  %23 = load i32, i32* %5, align 4
  %24 = icmp ne i32 %22, %23
  br i1 %24, label %25, label %26

25:                                               ; preds = %0
  store i32 3, i32* %7, align 4
  br label %26

26:                                               ; preds = %25, %0
  store i32 0, i32* %6, align 4
  br label %27

27:                                               ; preds = %104, %26
  %28 = load i32, i32* %6, align 4
  %29 = load i32, i32* %5, align 4
  %30 = icmp slt i32 %28, %29
  br i1 %30, label %31, label %107

31:                                               ; preds = %27
  %32 = load i32, i32* %6, align 4
  %33 = sext i32 %32 to i64
  %34 = getelementptr inbounds [505 x i8], [505 x i8]* %9, i64 0, i64 %33
  %35 = load i8, i8* %34, align 1
  %36 = sext i8 %35 to i32
  %37 = load i32, i32* %6, align 4
  %38 = sext i32 %37 to i64
  %39 = getelementptr inbounds [505 x i8], [505 x i8]* %10, i64 0, i64 %38
  %40 = load i8, i8* %39, align 1
  %41 = sext i8 %40 to i32
  %42 = icmp eq i32 %36, %41
  br i1 %42, label %43, label %46

43:                                               ; preds = %31
  %44 = load i32, i32* %8, align 4
  %45 = add nsw i32 %44, 1
  store i32 %45, i32* %8, align 4
  br label %46

46:                                               ; preds = %43, %31
  %47 = load i32, i32* %6, align 4
  %48 = sext i32 %47 to i64
  %49 = getelementptr inbounds [505 x i8], [505 x i8]* %9, i64 0, i64 %48
  %50 = load i8, i8* %49, align 1
  %51 = sext i8 %50 to i32
  %52 = icmp ne i32 %51, 65
  br i1 %52, label %53, label %74

53:                                               ; preds = %46
  %54 = load i32, i32* %6, align 4
  %55 = sext i32 %54 to i64
  %56 = getelementptr inbounds [505 x i8], [505 x i8]* %9, i64 0, i64 %55
  %57 = load i8, i8* %56, align 1
  %58 = sext i8 %57 to i32
  %59 = icmp ne i32 %58, 71
  br i1 %59, label %60, label %74

60:                                               ; preds = %53
  %61 = load i32, i32* %6, align 4
  %62 = sext i32 %61 to i64
  %63 = getelementptr inbounds [505 x i8], [505 x i8]* %9, i64 0, i64 %62
  %64 = load i8, i8* %63, align 1
  %65 = sext i8 %64 to i32
  %66 = icmp ne i32 %65, 67
  br i1 %66, label %67, label %74

67:                                               ; preds = %60
  %68 = load i32, i32* %6, align 4
  %69 = sext i32 %68 to i64
  %70 = getelementptr inbounds [505 x i8], [505 x i8]* %9, i64 0, i64 %69
  %71 = load i8, i8* %70, align 1
  %72 = sext i8 %71 to i32
  %73 = icmp ne i32 %72, 84
  br i1 %73, label %102, label %74

74:                                               ; preds = %67, %60, %53, %46
  %75 = load i32, i32* %6, align 4
  %76 = sext i32 %75 to i64
  %77 = getelementptr inbounds [505 x i8], [505 x i8]* %10, i64 0, i64 %76
  %78 = load i8, i8* %77, align 1
  %79 = sext i8 %78 to i32
  %80 = icmp ne i32 %79, 84
  br i1 %80, label %81, label %103

81:                                               ; preds = %74
  %82 = load i32, i32* %6, align 4
  %83 = sext i32 %82 to i64
  %84 = getelementptr inbounds [505 x i8], [505 x i8]* %10, i64 0, i64 %83
  %85 = load i8, i8* %84, align 1
  %86 = sext i8 %85 to i32
  %87 = icmp ne i32 %86, 65
  br i1 %87, label %88, label %103

88:                                               ; preds = %81
  %89 = load i32, i32* %6, align 4
  %90 = sext i32 %89 to i64
  %91 = getelementptr inbounds [505 x i8], [505 x i8]* %10, i64 0, i64 %90
  %92 = load i8, i8* %91, align 1
  %93 = sext i8 %92 to i32
  %94 = icmp ne i32 %93, 67
  br i1 %94, label %95, label %103

95:                                               ; preds = %88
  %96 = load i32, i32* %6, align 4
  %97 = sext i32 %96 to i64
  %98 = getelementptr inbounds [505 x i8], [505 x i8]* %10, i64 0, i64 %97
  %99 = load i8, i8* %98, align 1
  %100 = sext i8 %99 to i32
  %101 = icmp ne i32 %100, 71
  br i1 %101, label %102, label %103

102:                                              ; preds = %95, %67
  store i32 3, i32* %7, align 4
  br label %107

103:                                              ; preds = %95, %88, %81, %74
  br label %104

104:                                              ; preds = %103
  %105 = load i32, i32* %6, align 4
  %106 = add nsw i32 %105, 1
  store i32 %106, i32* %6, align 4
  br label %27

107:                                              ; preds = %102, %27
  %108 = load i32, i32* %8, align 4
  %109 = sitofp i32 %108 to double
  %110 = fmul double 1.000000e+00, %109
  %111 = load i32, i32* %5, align 4
  %112 = sitofp i32 %111 to double
  %113 = fdiv double %110, %112
  store double %113, double* %3, align 8
  %114 = load double, double* %3, align 8
  %115 = load double, double* %2, align 8
  %116 = fcmp ogt double %114, %115
  br i1 %116, label %117, label %122

117:                                              ; preds = %107
  %118 = load i32, i32* %7, align 4
  %119 = icmp eq i32 %118, 0
  br i1 %119, label %120, label %122

120:                                              ; preds = %117
  %121 = call i32 (i8*, ...) @printf(i8* getelementptr inbounds ([4 x i8], [4 x i8]* @.str.2, i64 0, i64 0))
  br label %122

122:                                              ; preds = %120, %117, %107
  %123 = load double, double* %3, align 8
  %124 = load double, double* %2, align 8
  %125 = fcmp ole double %123, %124
  br i1 %125, label %126, label %131

126:                                              ; preds = %122
  %127 = load i32, i32* %7, align 4
  %128 = icmp eq i32 %127, 0
  br i1 %128, label %129, label %131

129:                                              ; preds = %126
  %130 = call i32 (i8*, ...) @printf(i8* getelementptr inbounds ([3 x i8], [3 x i8]* @.str.3, i64 0, i64 0))
  br label %131

131:                                              ; preds = %129, %126, %122
  %132 = load i32, i32* %7, align 4
  %133 = icmp eq i32 %132, 3
  br i1 %133, label %134, label %136

134:                                              ; preds = %131
  %135 = call i32 (i8*, ...) @printf(i8* getelementptr inbounds ([6 x i8], [6 x i8]* @.str.4, i64 0, i64 0))
  br label %136

136:                                              ; preds = %134, %131
  ret i32 0
}

declare dso_local i32 @__isoc99_scanf(i8*, ...) #1

; Function Attrs: nounwind readonly
declare dso_local i64 @strlen(i8*) #2

declare dso_local i32 @printf(i8*, ...) #1


!llvm.module.flags = !{!0}
!llvm.ident = !{!1}

!0 = !{i32 1, !"wchar_size", i32 4}
!1 = !{!"clang version 10.0.0-4ubuntu1 "}
