; ModuleID = 'source-C-CXX/4/164.c'
source_filename = "source-C-CXX/4/164.c"
target datalayout = "e-m:e-p270:32:32-p271:32:32-p272:64:64-i64:64-f80:128-n8:16:32:64-S128"
target triple = "x86_64-pc-linux-gnu"

@.str = private unnamed_addr constant [4 x i8] c"%lf\00", align 1
@.str.1 = private unnamed_addr constant [3 x i8] c"%s\00", align 1
@.str.2 = private unnamed_addr constant [4 x i8] c"yes\00", align 1
@.str.3 = private unnamed_addr constant [3 x i8] c"no\00", align 1
@.str.4 = private unnamed_addr constant [6 x i8] c"error\00", align 1

; Function Attrs: nofree nounwind sspstrong uwtable
define dso_local i32 @main() local_unnamed_addr #0 {
  %1 = alloca double, align 8
  %2 = alloca [505 x i8], align 16
  %3 = alloca [505 x i8], align 16
  %4 = bitcast double* %1 to i8*
  call void @llvm.lifetime.start.p0i8(i64 8, i8* nonnull %4) #4
  %5 = getelementptr inbounds [505 x i8], [505 x i8]* %2, i64 0, i64 0
  call void @llvm.lifetime.start.p0i8(i64 505, i8* nonnull %5) #4
  %6 = getelementptr inbounds [505 x i8], [505 x i8]* %3, i64 0, i64 0
  call void @llvm.lifetime.start.p0i8(i64 505, i8* nonnull %6) #4
  %7 = call i32 (i8*, ...) @__isoc99_scanf(i8* getelementptr inbounds ([4 x i8], [4 x i8]* @.str, i64 0, i64 0), double* nonnull %1)
  %8 = call i32 (i8*, ...) @__isoc99_scanf(i8* getelementptr inbounds ([3 x i8], [3 x i8]* @.str.1, i64 0, i64 0), i8* nonnull %5)
  %9 = call i32 (i8*, ...) @__isoc99_scanf(i8* getelementptr inbounds ([3 x i8], [3 x i8]* @.str.1, i64 0, i64 0), i8* nonnull %6)
  %10 = call i64 @strlen(i8* noundef nonnull %5) #5
  %11 = trunc i64 %10 to i32
  %12 = call i64 @strlen(i8* noundef nonnull %6) #5
  %13 = trunc i64 %12 to i32
  %14 = icmp eq i32 %13, %11
  %15 = select i1 %14, i32 0, i32 3
  %16 = icmp sgt i32 %11, 0
  br i1 %16, label %17, label %36

17:                                               ; preds = %0
  %18 = and i64 %10, 4294967295
  br label %19

19:                                               ; preds = %17, %30
  %20 = phi i64 [ 0, %17 ], [ %31, %30 ]
  %21 = phi i32 [ 0, %17 ], [ %28, %30 ]
  %22 = getelementptr inbounds [505 x i8], [505 x i8]* %2, i64 0, i64 %20
  %23 = load i8, i8* %22, align 1, !tbaa !5
  %24 = getelementptr inbounds [505 x i8], [505 x i8]* %3, i64 0, i64 %20
  %25 = load i8, i8* %24, align 1, !tbaa !5
  %26 = icmp eq i8 %23, %25
  %27 = zext i1 %26 to i32
  %28 = add nuw nsw i32 %21, %27
  switch i8 %23, label %33 [
    i8 65, label %29
    i8 71, label %29
    i8 67, label %29
    i8 84, label %29
  ]

29:                                               ; preds = %19, %19, %19, %19
  switch i8 %25, label %33 [
    i8 84, label %30
    i8 65, label %30
    i8 67, label %30
    i8 71, label %30
  ]

30:                                               ; preds = %29, %29, %29, %29
  %31 = add nuw nsw i64 %20, 1
  %32 = icmp eq i64 %31, %18
  br i1 %32, label %33, label %19, !llvm.loop !8

33:                                               ; preds = %19, %29, %30
  %34 = phi i32 [ %15, %30 ], [ 3, %29 ], [ 3, %19 ]
  %35 = sitofp i32 %28 to double
  br label %36

36:                                               ; preds = %33, %0
  %37 = phi i32 [ %15, %0 ], [ %34, %33 ]
  %38 = phi double [ 0.000000e+00, %0 ], [ %35, %33 ]
  %39 = sitofp i32 %11 to double
  %40 = fdiv double %38, %39
  %41 = load double, double* %1, align 8, !tbaa !10
  %42 = fcmp ogt double %40, %41
  %43 = icmp eq i32 %37, 0
  %44 = and i1 %43, %42
  br i1 %44, label %48, label %45

45:                                               ; preds = %36
  %46 = fcmp ole double %40, %41
  %47 = and i1 %43, %46
  br i1 %47, label %54, label %52

48:                                               ; preds = %36
  %49 = call i32 (i8*, ...) @printf(i8* nonnull dereferenceable(1) getelementptr inbounds ([4 x i8], [4 x i8]* @.str.2, i64 0, i64 0))
  %50 = load double, double* %1, align 8, !tbaa !10
  %51 = fcmp ugt double %40, %50
  br i1 %51, label %57, label %54

52:                                               ; preds = %45
  %53 = icmp eq i32 %37, 3
  br i1 %53, label %54, label %57

54:                                               ; preds = %52, %48, %45
  %55 = phi i8* [ getelementptr inbounds ([3 x i8], [3 x i8]* @.str.3, i64 0, i64 0), %45 ], [ getelementptr inbounds ([3 x i8], [3 x i8]* @.str.3, i64 0, i64 0), %48 ], [ getelementptr inbounds ([6 x i8], [6 x i8]* @.str.4, i64 0, i64 0), %52 ]
  %56 = call i32 (i8*, ...) @printf(i8* nonnull dereferenceable(1) %55)
  br label %57

57:                                               ; preds = %54, %48, %52
  call void @llvm.lifetime.end.p0i8(i64 505, i8* nonnull %6) #4
  call void @llvm.lifetime.end.p0i8(i64 505, i8* nonnull %5) #4
  call void @llvm.lifetime.end.p0i8(i64 8, i8* nonnull %4) #4
  ret i32 0
}

; Function Attrs: argmemonly mustprogress nofree nosync nounwind willreturn
declare void @llvm.lifetime.start.p0i8(i64 immarg, i8* nocapture) #1

; Function Attrs: nofree nounwind
declare noundef i32 @__isoc99_scanf(i8* nocapture noundef readonly, ...) local_unnamed_addr #2

; Function Attrs: argmemonly mustprogress nofree nounwind readonly willreturn
declare i64 @strlen(i8* nocapture) local_unnamed_addr #3

; Function Attrs: nofree nounwind
declare noundef i32 @printf(i8* nocapture noundef readonly, ...) local_unnamed_addr #2

; Function Attrs: argmemonly mustprogress nofree nosync nounwind willreturn
declare void @llvm.lifetime.end.p0i8(i64 immarg, i8* nocapture) #1


!llvm.module.flags = !{!0, !1, !2, !3}
!llvm.ident = !{!4}

!0 = !{i32 1, !"wchar_size", i32 4}
!1 = !{i32 7, !"PIC Level", i32 2}
!2 = !{i32 7, !"PIE Level", i32 2}
!3 = !{i32 7, !"uwtable", i32 1}
!4 = !{!"clang version 13.0.0"}
!5 = !{!6, !6, i64 0}
!6 = !{!"omnipotent char", !7, i64 0}
!7 = !{!"Simple C/C++ TBAA"}
!8 = distinct !{!8, !9}
!9 = !{!"llvm.loop.mustprogress"}
!10 = !{!11, !11, i64 0}
!11 = !{!"double", !6, i64 0}
